; Function Attrs: mustprogress nounwind uwtable
define internal void @_ZN4absl13cord_internal19CordRepExternalImplIZNS_L17CordRepFromStringEONSt7__cxx1112basic_stringIcSt11char_traitsIcESaIcEEEE14StringReleaserE7ReleaseEPNS0_15CordRepExternalE(ptr noundef %0) #7 align 2 personality ptr @__gxx_personality_v0 {
  %2 = icmp eq ptr %0, null
  br i1 %2, label %13, label %3

3:                                                ; preds = %1
  %4 = getelementptr inbounds nuw i8, ptr %0, i64 32
  %5 = load ptr, ptr %4, align 8, !tbaa !12
  %6 = getelementptr inbounds nuw i8, ptr %0, i64 48
  %7 = icmp eq ptr %5, %6
  br i1 %7, label %_ZNKSt7__cxx1112basic_stringIcSt11char_traitsIcESaIcEE11_M_is_localEv.exit.thread.i.i.i.i.i, label %_ZNKSt7__cxx1112basic_stringIcSt11char_traitsIcESaIcEE11_M_is_localEv.exit.i.i.i.i.i

_ZNKSt7__cxx1112basic_stringIcSt11char_traitsIcESaIcEE11_M_is_localEv.exit.thread.i.i.i.i.i: ; preds = %3
  %8 = getelementptr inbounds nuw i8, ptr %0, i64 40
  %9 = load i64, ptr %8, align 8, !tbaa !4
  %10 = icmp ult i64 %9, 16
  tail call void @llvm.assume(i1 %10)
  br label %_ZN4absl13cord_internal19CordRepExternalImplIZNS_L17CordRepFromStringEONSt7__cxx1112basic_stringIcSt11char_traitsIcESaIcEEEE14StringReleaserED2Ev.exit

_ZNKSt7__cxx1112basic_stringIcSt11char_traitsIcESaIcEE11_M_is_localEv.exit.i.i.i.i.i: ; preds = %3
  %11 = load i64, ptr %6, align 8, !tbaa !13
  %12 = add i64 %11, 1
  tail call void @_ZdlPvm(ptr noundef %5, i64 noundef %12) #25
  br label %_ZN4absl13cord_internal19CordRepExternalImplIZNS_L17CordRepFromStringEONSt7__cxx1112basic_stringIcSt11char_traitsIcESaIcEEEE14StringReleaserED2Ev.exit

_ZN4absl13cord_internal19CordRepExternalImplIZNS_L17CordRepFromStringEONSt7__cxx1112basic_stringIcSt11char_traitsIcESaIcEEEE14StringReleaserED2Ev.exit: ; preds = %_ZNKSt7__cxx1112basic_stringIcSt11char_traitsIcESaIcEE11_M_is_localEv.exit.thread.i.i.i.i.i, %_ZNKSt7__cxx1112basic_stringIcSt11char_traitsIcESaIcEE11_M_is_localEv.exit.i.i.i.i.i
  tail call void @_ZdlPvm(ptr noundef nonnull %0, i64 noundef 64) #25
  br label %13

13:                                               ; preds = %_ZN4absl13cord_internal19CordRepExternalImplIZNS_L17CordRepFromStringEONSt7__cxx1112basic_stringIcSt11char_traitsIcESaIcEEEE14StringReleaserED2Ev.exit, %1
  ret void
}